; Function Attrs: mustprogress nounwind uwtable
define void @_ZN2cv25BOWImgDescriptorExtractorC2ERKNS_3PtrINS_9Feature2DEEERKNS1_INS_17DescriptorMatcherEEE(ptr noundef nonnull align 8 dereferenceable(136) %0, ptr nocapture noundef nonnull readonly align 8 dereferenceable(16) %1, ptr nocapture noundef nonnull readonly align 8 dereferenceable(16) %2) unnamed_addr #1 align 2 personality ptr @__gxx_personality_v0 {
  store ptr getelementptr inbounds inrange(-16, 16) (i8, ptr @_ZTVN2cv25BOWImgDescriptorExtractorE, i64 16), ptr %0, align 8
  %4 = getelementptr inbounds i8, ptr %0, i64 8
  tail call void @_ZN2cv3MatC1Ev(ptr noundef nonnull align 8 dereferenceable(96) %4) #20
  %5 = getelementptr inbounds i8, ptr %0, i64 104
  %6 = load ptr, ptr %1, align 8
  store ptr %6, ptr %5, align 8
  %7 = getelementptr inbounds i8, ptr %0, i64 112
  %8 = getelementptr inbounds i8, ptr %1, i64 8
  %9 = load ptr, ptr %8, align 8
  store ptr %9, ptr %7, align 8
  %.not.i.i.i.i = icmp eq ptr %9, null
  br i1 %.not.i.i.i.i, label %_ZN2cv3PtrINS_9Feature2DEEC2ERKS2_.exit, label %10

10:                                               ; preds = %3
  %11 = getelementptr inbounds i8, ptr %9, i64 8
  %12 = load i8, ptr @__libc_single_threaded, align 1
  %.not.i.i.i.i.i = icmp eq i8 %12, 0
  br i1 %.not.i.i.i.i.i, label %16, label %13

13:                                               ; preds = %10
  %14 = load i32, ptr %11, align 4
  %15 = add nsw i32 %14, 1
  store i32 %15, ptr %11, align 4
  br label %_ZN2cv3PtrINS_9Feature2DEEC2ERKS2_.exit

16:                                               ; preds = %10
  %17 = atomicrmw volatile add ptr %11, i32 1 acq_rel, align 4
  br label %_ZN2cv3PtrINS_9Feature2DEEC2ERKS2_.exit

_ZN2cv3PtrINS_9Feature2DEEC2ERKS2_.exit:          ; preds = %3, %13, %16
  %18 = getelementptr inbounds i8, ptr %0, i64 120
  %19 = load ptr, ptr %2, align 8
  store ptr %19, ptr %18, align 8
  %20 = getelementptr inbounds i8, ptr %0, i64 128
  %21 = getelementptr inbounds i8, ptr %2, i64 8
  %22 = load ptr, ptr %21, align 8
  store ptr %22, ptr %20, align 8
  %.not.i.i.i.i3 = icmp eq ptr %22, null
  br i1 %.not.i.i.i.i3, label %_ZN2cv3PtrINS_17DescriptorMatcherEEC2ERKS2_.exit, label %23

23:                                               ; preds = %_ZN2cv3PtrINS_9Feature2DEEC2ERKS2_.exit
  %24 = getelementptr inbounds i8, ptr %22, i64 8
  %25 = load i8, ptr @__libc_single_threaded, align 1
  %.not.i.i.i.i.i4 = icmp eq i8 %25, 0
  br i1 %.not.i.i.i.i.i4, label %29, label %26

26:                                               ; preds = %23
  %27 = load i32, ptr %24, align 4
  %28 = add nsw i32 %27, 1
  store i32 %28, ptr %24, align 4
  br label %_ZN2cv3PtrINS_17DescriptorMatcherEEC2ERKS2_.exit

29:                                               ; preds = %23
  %30 = atomicrmw volatile add ptr %24, i32 1 acq_rel, align 4
  br label %_ZN2cv3PtrINS_17DescriptorMatcherEEC2ERKS2_.exit

_ZN2cv3PtrINS_17DescriptorMatcherEEC2ERKS2_.exit: ; preds = %_ZN2cv3PtrINS_9Feature2DEEC2ERKS2_.exit, %26, %29
  ret void
}